(i__main__
caty
p0
(dp1
S'd4'
p2
(dp3
I40
(dp4
S'Product'
p5
S"Girl's skirts"
p6
sS'Price'
p7
I15
sS'Availability'
p8
I8
ssI41
(dp9
g5
S'Socks 3pcs'
p10
sg7
I8
sg8
I20
ssI42
(dp11
g5
S"Men's shirts"
p12
sg7
I35
sg8
I20
ssI43
(dp13
g5
S'Ladies sweaters'
p14
sg7
I34
sg8
I12
ssI44
(dp15
g5
S"Boy's pants"
p16
sg7
I30
sg8
I10
ssI45
(dp17
g5
S"Girl's top assorted"
p18
sg7
I12
sg8
I20
ssI46
(dp19
g5
S"Men's t-shirts assorted"
p20
sg7
I22
sg8
I13
ssI47
(dp21
g5
S'Ladies trousers'
p22
sg7
I20
sg8
I6
ssI48
(dp23
g5
S"Men's bermudas"
p24
sg7
I20
sg8
I9
ssI49
(dp25
g5
S'Ladies dresses'
p26
sg7
I30
sg8
I10
sssS'd5'
p27
(dp28
I50
(dp29
g5
S'Dettol hand wash'
p30
sg7
I9
sg8
I10
ssI51
(dp31
g5
S'Tide detergent'
p32
sg7
I25
sg8
I20
ssI52
(dp33
g5
S'Clorax Disinfectant'
p34
sg7
I30
sg8
I10
ssI53
(dp35
g5
S'Toilet paper rolls 2pcs'
p36
sg7
I10
sg8
I30
ssI54
(dp37
g5
S'Bleach'
p38
sg7
I20
sg8
I10
ssI55
(dp39
g5
S'Mop'
p40
sg7
I20
sg8
I5
ssI56
(dp41
g5
S'Lux Dishwashing Liquid'
p42
sg7
I15
sg8
I10
ssI57
(dp43
g5
S'Wiper'
p44
sg7
I13
sg8
I8
ssI58
(dp45
g5
S'Loofah'
p46
sg7
I5
sg8
I9
ssI59
(dp47
g5
S'Gilette shaving gel'
p48
sg7
I15
sg8
I10
ssI62
(dp49
S'Product'
p50
S'Soapy soapy soap'
p51
sS'Price'
p52
I2
sS'Availability'
p53
I0
sssS'd2'
p54
(dp55
I13
(dp56
g5
S'Samsung Galaxy Note 7 smartphone'
p57
sg7
I3250
sg8
I5
ssI14
(dp58
g5
S'Samsung smart 3D HD tv, 40"'
p59
sg7
I2999
sg8
I5
ssI15
(dp60
g5
S'Sony Handicam'
p61
sg7
I399
sg8
I9
ssI16
(dp62
g5
S'Dell inspiron laptap'
p63
sg7
I1999
sg8
I3
ssI17
(dp64
g5
S'Bose home theatre'
p65
sg7
I12999
sg8
I3
ssI18
(dp66
g5
S'HP All-in-one printer'
p67
sg7
I1699
sg8
I10
ssI19
(dp68
g5
S'Nikon camera'
p69
sg7
I2999
sg8
I7
ssI20
(dp70
g5
S'Lenovo Yoga Tab'
p71
sg7
I1999
sg8
I10
ssI21
(dp72
g5
S'Bosch dishwasher'
p73
sg7
I2000
sg8
I3
ssI22
(dp74
g5
S'Moulinex Food processor'
p75
sg7
I300
sg8
I3
ssI23
(dp76
g5
S'Braun Hair Dryer'
p77
sg7
I50
sg8
I8
ssI24
(dp78
g5
S'Iphone 8 64GB'
p79
sg7
I4400
sg8
I5
sssS'd3'
p80
(dp81
I32
(dp82
g5
S'Faber castell water colours'
p83
sg7
I20
sg8
I5
ssI33
(dp84
g5
S'Camlin ruler '
p85
sg7
I2
sg8
I10
ssI34
(dp86
g5
S'Sinarline 200pg ruled notebook'
p87
sg7
F3.5
sg8
I20
ssI35
(dp88
g5
S'Excel Register 2QR'
p89
sg7
I8
sg8
I9
ssI36
(dp90
g5
S'Cello ballpoint pen'
p91
sg7
I1
sg8
I30
ssI37
(dp92
g5
S'Flamingo geometry box'
p93
sg7
I10
sg8
I10
ssI38
(dp94
g5
S'Staedler pencil per packet'
p95
sg7
I5
sg8
I32
ssI39
(dp96
g5
S'Apsara eraser per packet'
p97
sg7
I5
sg8
I25
ssI25
(dp98
g5
S'Assorted pencil boxes'
p99
sg7
I8
sg8
I9
ssI26
(dp100
g5
S'Highlighters'
p101
sg7
I2
sg8
I12
ssI27
(dp102
g5
S'Assorted sharpners'
p103
sg7
I2
sg8
I15
ssI28
(dp104
g5
S'Montex ink pen'
p105
sg7
I3
sg8
I8
ssI29
(dp106
g5
S'Oval white ink'
p107
sg7
I3
sg8
I6
ssI31
(dp108
g5
S'Maped colour pencils 24'
p109
sg7
I20
sg8
I4
sssS'd1'
p110
(dp111
I2
(dp112
g5
S'Olay total effects'
p113
sg7
I62
sg8
I30
ssI3
(dp114
g5
S'Nivea body lotion'
p115
sg7
I23
sg8
I20
ssI4
(dp116
g5
S'Loreal paris shampoo'
p117
sg7
I56
sg8
I25
ssI5
(dp118
g5
S'Vaseline petroleum jelly'
p119
sg7
I12
sg8
I30
ssI6
(dp120
g5
S'Garnier colour naturals'
p121
sg7
I16
sg8
I12
ssI7
(dp122
g5
S'Clean and clear makeup remover'
p123
sg7
I15
sg8
I10
ssI8
(dp124
g5
S'Ponds white radiance'
p125
sg7
I22
sg8
I12
ssI9
(dp126
g5
S'Parachute hair oil'
p127
sg7
I12
sg8
I12
ssI10
(dp128
g5
S'Enchanteur body lotion'
p129
sg7
I21
sg8
I12
ssI11
(dp130
g5
S'Lux soap'
p131
sg7
I5
sg8
I10
ssI12
(dp132
g5
S'Lifebuoy body wash'
p133
sg7
I15
sg8
I9
sssb.