(itestproj3
scard
p0
(dp1
S'phone'
p2
S'0569161887'
p3
sS'idno'
p4
I1001
sS'points'
p5
F1000.5
sS'name'
p6
S'Bargavi'
p7
sb.(i__main__
scard
p0
(dp1
S'phone'
p2
S'0562770805'
p3
sS'idno'
p4
I1002
sS'points'
p5
I1000
sS'name'
p6
S'Anushree'
p7
sb.(i__main__
scard
p0
(dp1
S'phone'
p2
S'0563006076'
p3
sS'idno'
p4
I1003
sS'points'
p5
I452
sS'name'
p6
S'Abolee'
p7
sb.(itestproj3
scard
p0
(dp1
S'phone'
p2
S'7654638'
p3
sS'idno'
p4
I1004
sS'points'
p5
I255
sS'name'
p6
S'bhavna'
p7
sb.(i__main__
scard
p0
(dp1
S'phone'
p2
S'0502766028'
p3
sS'idno'
p4
I1005
sS'points'
p5
I362
sS'name'
p6
S'Bharini'
p7
sb.(i__main__
scard
p0
(dp1
S'phone'
p2
S'0566525465'
p3
sS'idno'
p4
I1006
sS'points'
p5
I352
sS'name'
p6
S'Chandini'
p7
sb.(itestproj3
scard
p0
(dp1
S'phone'
p2
S'0563620954'
p3
sS'idno'
p4
I1007
sS'points'
p5
I0
sS'name'
p6
S'naina'
p7
sb.(itestproj3
scard
p0
(dp1
S'phone'
p2
S'97787723'
p3
sS'idno'
p4
I1008
sS'points'
p5
I0
sS'name'
p6
S'naina'
p7
sb.